; Function Attrs: nounwind uwtable
define dso_local range(i32 0, 3) i32 @parse_long_opt(ptr noundef %0, ptr noundef readonly captures(none) %1, ptr noundef writeonly captures(none) %2) local_unnamed_addr #0 {
  %4 = load ptr, ptr %1, align 8, !tbaa !4
  %scevgep = getelementptr i8, ptr %4, i64 2
  br label %5

5:                                                ; preds = %6, %3
  %.07.i = phi ptr [ %4, %3 ], [ %8, %6 ]
  %.06.i.idx = phi i64 [ 0, %3 ], [ %.06.i.add, %6 ]
  %exitcond = icmp eq i64 %.06.i.idx, 2
  br i1 %exitcond, label %.preheader, label %6

6:                                                ; preds = %5
  %.06.i.ptr = getelementptr inbounds nuw i8, ptr @.str.61, i64 %.06.i.idx
  %7 = load i8, ptr %.06.i.ptr, align 1, !tbaa !38
  %8 = getelementptr inbounds nuw i8, ptr %.07.i, i64 1
  %9 = load i8, ptr %.07.i, align 1, !tbaa !38
  %.06.i.add = add nuw nsw i64 %.06.i.idx, 1
  %10 = icmp eq i8 %9, %7
  br i1 %10, label %5, label %skip_prefix.exit, !llvm.loop !39

.preheader:                                       ; preds = %5, %12
  %.07.i10 = phi ptr [ %13, %12 ], [ %scevgep, %5 ]
  %.06.i11 = phi ptr [ %15, %12 ], [ %0, %5 ]
  %11 = load i8, ptr %.06.i11, align 1, !tbaa !38
  %.not.i12 = icmp eq i8 %11, 0
  br i1 %.not.i12, label %17, label %12

12:                                               ; preds = %.preheader
  %13 = getelementptr inbounds nuw i8, ptr %.07.i10, i64 1
  %14 = load i8, ptr %.07.i10, align 1, !tbaa !38
  %15 = getelementptr inbounds nuw i8, ptr %.06.i11, i64 1
  %16 = icmp eq i8 %14, %11
  br i1 %16, label %.preheader, label %skip_prefix.exit, !llvm.loop !39

17:                                               ; preds = %.preheader
  %18 = load i8, ptr %.07.i10, align 1, !tbaa !38
  switch i8 %18, label %skip_prefix.exit [
    i8 61, label %19
    i8 0, label %21
  ]

19:                                               ; preds = %17
  %20 = getelementptr inbounds nuw i8, ptr %.07.i10, i64 1
  br label %skip_prefix.exit.sink.split

21:                                               ; preds = %17
  %22 = getelementptr inbounds nuw i8, ptr %1, i64 8
  %23 = load ptr, ptr %22, align 8, !tbaa !4
  %.not9 = icmp eq ptr %23, null
  br i1 %.not9, label %24, label %skip_prefix.exit.sink.split

24:                                               ; preds = %21
  tail call void (ptr, ...) @die(ptr noundef nonnull @.str.62, ptr noundef %0) #34
  unreachable

skip_prefix.exit.sink.split:                      ; preds = %21, %19
  %.sink = phi ptr [ %20, %19 ], [ %23, %21 ]
  %.0.ph = phi i32 [ 1, %19 ], [ 2, %21 ]
  store ptr %.sink, ptr %2, align 8, !tbaa !4
  br label %skip_prefix.exit

skip_prefix.exit:                                 ; preds = %6, %12, %skip_prefix.exit.sink.split, %17
  %.0 = phi i32 [ 0, %17 ], [ %.0.ph, %skip_prefix.exit.sink.split ], [ 0, %12 ], [ 0, %6 ]
  ret i32 %.0
}